target datalayout = "e-m:e-p270:32:32-p271:32:32-p272:64:64-i64:64-i128:128-f80:128-n8:16:32:64-S128"
target triple = "x86_64-pc-linux-gnu"

%"class.std::__cxx11::basic_string" = type { %"struct.std::__cxx11::basic_string<char>::_Alloc_hider", i64, %union.anon }
%"struct.std::__cxx11::basic_string<char>::_Alloc_hider" = type { ptr }
%union.anon = type { i64, [8 x i8] }
%"struct.std::_Vector_base.9" = type { %"struct.std::_Vector_base<vcpkg::Path, std::allocator<vcpkg::Path>>::_Vector_impl" }
%"struct.std::_Vector_base<vcpkg::Path, std::allocator<vcpkg::Path>>::_Vector_impl" = type { %"struct.std::_Vector_base<vcpkg::Path, std::allocator<vcpkg::Path>>::_Vector_impl_data" }
%"struct.std::_Vector_base<vcpkg::Path, std::allocator<vcpkg::Path>>::_Vector_impl_data" = type { ptr, ptr, ptr }
%"struct.vcpkg::IgnoreErrors" = type { %"class.std::error_code" }
%"class.std::error_code" = type { i32, ptr }
%"struct.vcpkg::Path" = type { %"class.std::__cxx11::basic_string" }
%"class.__gnu_cxx::__normal_iterator.67" = type { ptr }
%class.anon = type { ptr }

; Function Attrs: mustprogress nounwind uwtable
define linkonce_odr dso_local void @_ZNSt10error_codeC2Ev(ptr noundef nonnull align 8 dereferenceable(16) %0) unnamed_addr #4 comdat align 2 {
  %2 = alloca ptr, align 8
  store ptr %0, ptr %2, align 8, !tbaa !143
  %3 = load ptr, ptr %2, align 8
  %4 = getelementptr inbounds nuw %"class.std::error_code", ptr %3, i32 0, i32 0
  store i32 0, ptr %4, align 8, !tbaa !145
  %5 = getelementptr inbounds nuw %"class.std::error_code", ptr %3, i32 0, i32 1
  %6 = call noundef nonnull align 8 dereferenceable(8) ptr @_ZNSt3_V215system_categoryEv() #25
  store ptr %6, ptr %5, align 8, !tbaa !148
  ret void
}

; Function Attrs: mustprogress nounwind uwtable
define linkonce_odr dso_local void @_ZN9__gnu_cxx17__normal_iteratorIPN5vcpkg4PathESt6vectorIS2_SaIS2_EEEC2ERKS3_(ptr noundef nonnull align 8 dereferenceable(8) %0, ptr noundef nonnull align 8 dereferenceable(8) %1) unnamed_addr #4 comdat align 2 {
  %3 = alloca ptr, align 8
  %4 = alloca ptr, align 8
  store ptr %0, ptr %3, align 8, !tbaa !84
  store ptr %1, ptr %4, align 8, !tbaa !134
  %5 = load ptr, ptr %3, align 8
  %6 = getelementptr inbounds nuw %"class.__gnu_cxx::__normal_iterator.67", ptr %5, i32 0, i32 0
  %7 = load ptr, ptr %4, align 8, !tbaa !134
  %8 = load ptr, ptr %7, align 8, !tbaa !32
  store ptr %8, ptr %6, align 8, !tbaa !94
  ret void
}

; Function Attrs: inlinehint mustprogress nounwind uwtable
define linkonce_odr dso_local void @_ZN5vcpkg12IgnoreErrorsC2Ev(ptr noundef nonnull align 8 dereferenceable(16) %0) unnamed_addr #5 comdat align 2 {
  %2 = alloca ptr, align 8
  store ptr %0, ptr %2, align 8, !tbaa !107
  %3 = load ptr, ptr %2, align 8
  %4 = getelementptr inbounds nuw %"struct.vcpkg::IgnoreErrors", ptr %3, i32 0, i32 0
  call void @_ZNSt10error_codeC2Ev(ptr noundef nonnull align 8 dereferenceable(16) %4) #19
  ret void
}

; Function Attrs: mustprogress nounwind uwtable
define linkonce_odr dso_local noundef nonnull align 8 dereferenceable(8) ptr @_ZNK9__gnu_cxx17__normal_iteratorIPN5vcpkg4PathESt6vectorIS2_SaIS2_EEE4baseEv(ptr noundef nonnull align 8 dereferenceable(8) %0) #4 comdat align 2 {
  %2 = alloca ptr, align 8
  store ptr %0, ptr %2, align 8, !tbaa !84
  %3 = load ptr, ptr %2, align 8
  %4 = getelementptr inbounds nuw %"class.__gnu_cxx::__normal_iterator.67", ptr %3, i32 0, i32 0
  ret ptr %4
}

; Function Attrs: mustprogress nounwind uwtable
define linkonce_odr dso_local ptr @_ZNSt6vectorIN5vcpkg4PathESaIS1_EE3endEv(ptr noundef nonnull align 8 dereferenceable(24) %0) #4 comdat align 2 {
  %2 = alloca %"class.__gnu_cxx::__normal_iterator.67", align 8
  %3 = alloca ptr, align 8
  store ptr %0, ptr %3, align 8, !tbaa !41
  %4 = load ptr, ptr %3, align 8
  %5 = getelementptr inbounds nuw %"struct.std::_Vector_base.9", ptr %4, i32 0, i32 0
  %6 = getelementptr inbounds nuw %"struct.std::_Vector_base<vcpkg::Path, std::allocator<vcpkg::Path>>::_Vector_impl_data", ptr %5, i32 0, i32 1
  call void @_ZN9__gnu_cxx17__normal_iteratorIPN5vcpkg4PathESt6vectorIS2_SaIS2_EEEC2ERKS3_(ptr noundef nonnull align 8 dereferenceable(8) %2, ptr noundef nonnull align 8 dereferenceable(8) %6) #19
  %7 = getelementptr inbounds nuw %"class.__gnu_cxx::__normal_iterator.67", ptr %2, i32 0, i32 0
  %8 = load ptr, ptr %7, align 8
  ret ptr %8
}

; Function Attrs: mustprogress nounwind uwtable
define linkonce_odr dso_local ptr @_ZNSt6vectorIN5vcpkg4PathESaIS1_EE5beginEv(ptr noundef nonnull align 8 dereferenceable(24) %0) #4 comdat align 2 {
  %2 = alloca %"class.__gnu_cxx::__normal_iterator.67", align 8
  %3 = alloca ptr, align 8
  store ptr %0, ptr %3, align 8, !tbaa !41
  %4 = load ptr, ptr %3, align 8
  %5 = getelementptr inbounds nuw %"struct.std::_Vector_base.9", ptr %4, i32 0, i32 0
  %6 = getelementptr inbounds nuw %"struct.std::_Vector_base<vcpkg::Path, std::allocator<vcpkg::Path>>::_Vector_impl_data", ptr %5, i32 0, i32 0
  call void @_ZN9__gnu_cxx17__normal_iteratorIPN5vcpkg4PathESt6vectorIS2_SaIS2_EEEC2ERKS3_(ptr noundef nonnull align 8 dereferenceable(8) %2, ptr noundef nonnull align 8 dereferenceable(8) %6) #19
  %7 = getelementptr inbounds nuw %"class.__gnu_cxx::__normal_iterator.67", ptr %2, i32 0, i32 0
  %8 = load ptr, ptr %7, align 8
  ret ptr %8
}

; Function Attrs: mustprogress nounwind uwtable
define linkonce_odr dso_local noundef nonnull align 8 dereferenceable(8) ptr @_ZN9__gnu_cxx17__normal_iteratorIPN5vcpkg4PathESt6vectorIS2_SaIS2_EEEppEv(ptr noundef nonnull align 8 dereferenceable(8) %0) #4 comdat align 2 {
  %2 = alloca ptr, align 8
  store ptr %0, ptr %2, align 8, !tbaa !84
  %3 = load ptr, ptr %2, align 8
  %4 = getelementptr inbounds nuw %"class.__gnu_cxx::__normal_iterator.67", ptr %3, i32 0, i32 0
  %5 = load ptr, ptr %4, align 8, !tbaa !94
  %6 = getelementptr inbounds nuw %"struct.vcpkg::Path", ptr %5, i32 1
  store ptr %6, ptr %4, align 8, !tbaa !94
  ret ptr %3
}

; Function Attrs: inlinehint mustprogress uwtable
define internal noundef zeroext i1 @"_ZZN5vcpkg21command_edit_and_exitERKNS_17VcpkgCmdArgumentsERKNS_10VcpkgPathsEENK3$_0clERKNS_4PathE"(ptr noundef nonnull align 8 dereferenceable(8) %0, ptr noundef nonnull align 8 dereferenceable(32) %1) #0 align 2 {
  %3 = alloca ptr, align 8
  %4 = alloca ptr, align 8
  %5 = alloca %"struct.vcpkg::IgnoreErrors", align 8
  store ptr %0, ptr %3, align 8, !tbaa !106
  store ptr %1, ptr %4, align 8, !tbaa !32
  %6 = load ptr, ptr %3, align 8
  %7 = getelementptr inbounds nuw %class.anon, ptr %6, i32 0, i32 0
  %8 = load ptr, ptr %7, align 8, !tbaa !204
  %9 = load ptr, ptr %4, align 8, !tbaa !32
  call void @llvm.lifetime.start.p0(i64 16, ptr %5) #19
  call void @llvm.memset.p0.i64(ptr align 8 %5, i8 0, i64 16, i1 false)
  call void @_ZN5vcpkg12IgnoreErrorsC2Ev(ptr noundef nonnull align 8 dereferenceable(16) %5) #19
  %10 = call noundef nonnull align 8 dereferenceable(16) ptr @_ZN5vcpkg12IgnoreErrorscvRSt10error_codeEv(ptr noundef nonnull align 8 dereferenceable(16) %5)
  %11 = call noundef zeroext i1 @_ZNK5vcpkg18ReadOnlyFilesystem6existsERKNS_4PathERSt10error_code(ptr noundef nonnull align 8 dereferenceable(8) %8, ptr noundef nonnull align 8 dereferenceable(32) %9, ptr noundef nonnull align 8 dereferenceable(16) %10)
  call void @llvm.lifetime.end.p0(i64 16, ptr %5) #19
  ret i1 %11
}

; Function Attrs: mustprogress nounwind uwtable
define linkonce_odr dso_local noundef nonnull align 8 dereferenceable(32) ptr @_ZNK9__gnu_cxx17__normal_iteratorIPN5vcpkg4PathESt6vectorIS2_SaIS2_EEEdeEv(ptr noundef nonnull align 8 dereferenceable(8) %0) #4 comdat align 2 {
  %2 = alloca ptr, align 8
  store ptr %0, ptr %2, align 8, !tbaa !84
  %3 = load ptr, ptr %2, align 8
  %4 = getelementptr inbounds nuw %"class.__gnu_cxx::__normal_iterator.67", ptr %3, i32 0, i32 0
  %5 = load ptr, ptr %4, align 8, !tbaa !94
  ret ptr %5
}

; Function Attrs: inlinehint mustprogress nounwind uwtable
define linkonce_odr dso_local noundef zeroext i1 @_ZN9__gnu_cxxneIPN5vcpkg4PathESt6vectorIS2_SaIS2_EEEEbRKNS_17__normal_iteratorIT_T0_EESC_(ptr noundef nonnull align 8 dereferenceable(8) %0, ptr noundef nonnull align 8 dereferenceable(8) %1) #5 comdat {
  %3 = alloca ptr, align 8
  %4 = alloca ptr, align 8
  store ptr %0, ptr %3, align 8, !tbaa !84
  store ptr %1, ptr %4, align 8, !tbaa !84
  %5 = load ptr, ptr %3, align 8, !tbaa !84
  %6 = call noundef nonnull align 8 dereferenceable(8) ptr @_ZNK9__gnu_cxx17__normal_iteratorIPN5vcpkg4PathESt6vectorIS2_SaIS2_EEE4baseEv(ptr noundef nonnull align 8 dereferenceable(8) %5) #19
  %7 = load ptr, ptr %6, align 8, !tbaa !32
  %8 = load ptr, ptr %4, align 8, !tbaa !84
  %9 = call noundef nonnull align 8 dereferenceable(8) ptr @_ZNK9__gnu_cxx17__normal_iteratorIPN5vcpkg4PathESt6vectorIS2_SaIS2_EEE4baseEv(ptr noundef nonnull align 8 dereferenceable(8) %8) #19
  %10 = load ptr, ptr %9, align 8, !tbaa !32
  %11 = icmp ne ptr %7, %10
  ret i1 %11
}

; Function Attrs: inlinehint mustprogress nounwind uwtable
define linkonce_odr dso_local ptr @_ZSt3endISt6vectorIN5vcpkg4PathESaIS2_EEEDTcldtfp_3endEERT_(ptr noundef nonnull align 8 dereferenceable(24) %0) #5 comdat {
  %2 = alloca %"class.__gnu_cxx::__normal_iterator.67", align 8
  %3 = alloca ptr, align 8
  store ptr %0, ptr %3, align 8, !tbaa !41
  %4 = load ptr, ptr %3, align 8, !tbaa !41
  %5 = call ptr @_ZNSt6vectorIN5vcpkg4PathESaIS1_EE3endEv(ptr noundef nonnull align 8 dereferenceable(24) %4) #19
  %6 = getelementptr inbounds nuw %"class.__gnu_cxx::__normal_iterator.67", ptr %2, i32 0, i32 0
  store ptr %5, ptr %6, align 8
  %7 = getelementptr inbounds nuw %"class.__gnu_cxx::__normal_iterator.67", ptr %2, i32 0, i32 0
  %8 = load ptr, ptr %7, align 8
  ret ptr %8
}

; Function Attrs: inlinehint mustprogress nounwind uwtable
define linkonce_odr dso_local ptr @_ZSt5beginISt6vectorIN5vcpkg4PathESaIS2_EEEDTcldtfp_5beginEERT_(ptr noundef nonnull align 8 dereferenceable(24) %0) #5 comdat {
  %2 = alloca %"class.__gnu_cxx::__normal_iterator.67", align 8
  %3 = alloca ptr, align 8
  store ptr %0, ptr %3, align 8, !tbaa !41
  %4 = load ptr, ptr %3, align 8, !tbaa !41
  %5 = call ptr @_ZNSt6vectorIN5vcpkg4PathESaIS1_EE5beginEv(ptr noundef nonnull align 8 dereferenceable(24) %4) #19
  %6 = getelementptr inbounds nuw %"class.__gnu_cxx::__normal_iterator.67", ptr %2, i32 0, i32 0
  store ptr %5, ptr %6, align 8
  %7 = getelementptr inbounds nuw %"class.__gnu_cxx::__normal_iterator.67", ptr %2, i32 0, i32 0
  %8 = load ptr, ptr %7, align 8
  ret ptr %8
}

; Function Attrs: mustprogress uwtable
define internal ptr @"_ZN5vcpkg4Util7find_ifIRSt6vectorINS_4PathESaIS3_EEZNS_21command_edit_and_exitERKNS_17VcpkgCmdArgumentsERKNS_10VcpkgPathsEE3$_0EEDaOT_T0_"(ptr noundef nonnull align 8 dereferenceable(24) %0, ptr %1) #1 {
  %3 = alloca %"class.__gnu_cxx::__normal_iterator.67", align 8
  %4 = alloca %class.anon, align 8
  %5 = alloca ptr, align 8
  %6 = alloca %"class.__gnu_cxx::__normal_iterator.67", align 8
  %7 = alloca %"class.__gnu_cxx::__normal_iterator.67", align 8
  %8 = getelementptr inbounds nuw %class.anon, ptr %4, i32 0, i32 0
  store ptr %1, ptr %8, align 8
  store ptr %0, ptr %5, align 8, !tbaa !41
  call void @llvm.lifetime.start.p0(i64 8, ptr %6) #19
  %9 = load ptr, ptr %5, align 8, !tbaa !41
  %10 = call ptr @_ZSt5beginISt6vectorIN5vcpkg4PathESaIS2_EEEDTcldtfp_5beginEERT_(ptr noundef nonnull align 8 dereferenceable(24) %9)
  %11 = getelementptr inbounds nuw %"class.__gnu_cxx::__normal_iterator.67", ptr %6, i32 0, i32 0
  store ptr %10, ptr %11, align 8
  call void @llvm.lifetime.start.p0(i64 8, ptr %7) #19
  %12 = load ptr, ptr %5, align 8, !tbaa !41
  %13 = call ptr @_ZSt3endISt6vectorIN5vcpkg4PathESaIS2_EEEDTcldtfp_3endEERT_(ptr noundef nonnull align 8 dereferenceable(24) %12)
  %14 = getelementptr inbounds nuw %"class.__gnu_cxx::__normal_iterator.67", ptr %7, i32 0, i32 0
  store ptr %13, ptr %14, align 8
  br label %15

15:                                               ; preds = %22, %2
  %16 = call noundef zeroext i1 @_ZN9__gnu_cxxneIPN5vcpkg4PathESt6vectorIS2_SaIS2_EEEEbRKNS_17__normal_iteratorIT_T0_EESC_(ptr noundef nonnull align 8 dereferenceable(8) %6, ptr noundef nonnull align 8 dereferenceable(8) %7) #19
  br i1 %16, label %17, label %24

17:                                               ; preds = %15
  %18 = call noundef nonnull align 8 dereferenceable(32) ptr @_ZNK9__gnu_cxx17__normal_iteratorIPN5vcpkg4PathESt6vectorIS2_SaIS2_EEEdeEv(ptr noundef nonnull align 8 dereferenceable(8) %6) #19
  %19 = call noundef zeroext i1 @"_ZZN5vcpkg21command_edit_and_exitERKNS_17VcpkgCmdArgumentsERKNS_10VcpkgPathsEENK3$_0clERKNS_4PathE"(ptr noundef nonnull align 8 dereferenceable(8) %4, ptr noundef nonnull align 8 dereferenceable(32) %18)
  br i1 %19, label %20, label %21

20:                                               ; preds = %17
  br label %24

21:                                               ; preds = %17
  br label %22

22:                                               ; preds = %21
  %23 = call noundef nonnull align 8 dereferenceable(8) ptr @_ZN9__gnu_cxx17__normal_iteratorIPN5vcpkg4PathESt6vectorIS2_SaIS2_EEEppEv(ptr noundef nonnull align 8 dereferenceable(8) %6) #19
  br label %15, !llvm.loop !81

24:                                               ; preds = %20, %15
  call void @llvm.memcpy.p0.p0.i64(ptr align 8 %3, ptr align 8 %6, i64 8, i1 false), !tbaa.struct !83
  call void @llvm.lifetime.end.p0(i64 8, ptr %7) #19
  call void @llvm.lifetime.end.p0(i64 8, ptr %6) #19
  %25 = getelementptr inbounds nuw %"class.__gnu_cxx::__normal_iterator.67", ptr %3, i32 0, i32 0
  %26 = load ptr, ptr %25, align 8
  ret ptr %26
}