; Function Attrs: mustprogress uwtable
define internal fastcc ptr @"_ZN5vcpkg4Util7find_ifIRSt6vectorINS_4PathESaIS3_EEZNS_21command_edit_and_exitERKNS_17VcpkgCmdArgumentsERKNS_10VcpkgPathsEE3$_0EEDaOT_T0_"(ptr %.0.val, ptr readnone captures(address) %.8.val, ptr nonnull %0) unnamed_addr #1 {
  %2 = alloca %"struct.vcpkg::IgnoreErrors", align 8
  %.not5 = icmp eq ptr %.0.val, %.8.val
  br i1 %.not5, label %._crit_edge, label %.lr.ph

.lr.ph:                                           ; preds = %1
  %3 = getelementptr inbounds nuw i8, ptr %2, i64 8
  %4 = tail call noundef nonnull align 8 dereferenceable(8) ptr @_ZNSt3_V215system_categoryEv() #24
  br label %5

5:                                                ; preds = %.lr.ph, %8
  %.sroa.01.06 = phi ptr [ %.0.val, %.lr.ph ], [ %9, %8 ]
  call void @llvm.lifetime.start.p0(i64 16, ptr nonnull %2) #22
  store i64 0, ptr %2, align 8
  store ptr %4, ptr %3, align 8, !tbaa !36
  %6 = call noundef nonnull align 8 dereferenceable(16) ptr @_ZN5vcpkg12IgnoreErrorscvRSt10error_codeEv(ptr noundef nonnull align 8 dereferenceable(16) %2)
  %7 = call noundef zeroext i1 @_ZNK5vcpkg18ReadOnlyFilesystem6existsERKNS_4PathERSt10error_code(ptr noundef nonnull align 8 dereferenceable(8) %0, ptr noundef nonnull align 8 dereferenceable(32) %.sroa.01.06, ptr noundef nonnull align 8 dereferenceable(16) %6)
  call void @llvm.lifetime.end.p0(i64 16, ptr nonnull %2) #22
  br i1 %7, label %._crit_edge, label %8

8:                                                ; preds = %5
  %9 = getelementptr inbounds nuw i8, ptr %.sroa.01.06, i64 32
  %.not = icmp eq ptr %9, %.8.val
  br i1 %.not, label %._crit_edge, label %5, !llvm.loop !95

._crit_edge:                                      ; preds = %8, %5, %1
  %.sroa.01.0.lcssa = phi ptr [ %.0.val, %1 ], [ %.sroa.01.06, %5 ], [ %9, %8 ]
  ret ptr %.sroa.01.0.lcssa
}